target datalayout = "e-m:e-p270:32:32-p271:32:32-p272:64:64-i64:64-i128:128-f80:128-n8:16:32:64-S128"
target triple = "x86_64-pc-linux-gnu"

%struct.pg_wchar_tbl = type { ptr, ptr, ptr, ptr, ptr, ptr, i32 }

@pg_wchar_table = external constant [0 x %struct.pg_wchar_tbl], align 8

; Function Attrs: nounwind uwtable
define dso_local zeroext i1 @pg_verify_mbstr(i32 noundef %0, ptr noundef %1, i32 noundef %2, i1 noundef zeroext %3) #1 {
  %5 = alloca i1, align 1
  %6 = alloca i32, align 4
  %7 = alloca ptr, align 8
  %8 = alloca i32, align 4
  %9 = alloca i8, align 1
  %10 = alloca i32, align 4
  %11 = alloca i32, align 4
  store i32 %0, ptr %6, align 4
  store ptr %1, ptr %7, align 8
  store i32 %2, ptr %8, align 4
  %12 = zext i1 %3 to i8
  store i8 %12, ptr %9, align 1
  call void @llvm.lifetime.start.p0(i64 4, ptr %10) #9
  %13 = load i32, ptr %6, align 4
  %14 = sext i32 %13 to i64
  %15 = getelementptr inbounds [0 x %struct.pg_wchar_tbl], ptr @pg_wchar_table, i64 0, i64 %14
  %16 = getelementptr inbounds nuw %struct.pg_wchar_tbl, ptr %15, i32 0, i32 5
  %17 = load ptr, ptr %16, align 8
  %18 = load ptr, ptr %7, align 8
  %19 = load i32, ptr %8, align 4
  %20 = call i32 %17(ptr noundef %18, i32 noundef %19)
  store i32 %20, ptr %10, align 4
  %21 = load i32, ptr %10, align 4
  %22 = load i32, ptr %8, align 4
  %23 = icmp ne i32 %21, %22
  br i1 %23, label %24, label %37

24:                                               ; preds = %4
  %25 = load i8, ptr %9, align 1, !range !4, !noundef !5
  %26 = trunc i8 %25 to i1
  br i1 %26, label %27, label %28

27:                                               ; preds = %24
  store i1 false, ptr %5, align 1
  store i32 1, ptr %11, align 4
  br label %38

28:                                               ; preds = %24
  %29 = load i32, ptr %6, align 4
  %30 = load ptr, ptr %7, align 8
  %31 = load i32, ptr %10, align 4
  %32 = sext i32 %31 to i64
  %33 = getelementptr inbounds i8, ptr %30, i64 %32
  %34 = load i32, ptr %8, align 4
  %35 = load i32, ptr %10, align 4
  %36 = sub i32 %34, %35
  call void @report_invalid_encoding(i32 noundef %29, ptr noundef %33, i32 noundef %36) #12
  unreachable

37:                                               ; preds = %4
  store i1 true, ptr %5, align 1
  store i32 1, ptr %11, align 4
  br label %38

38:                                               ; preds = %37, %27
  call void @llvm.lifetime.end.p0(i64 4, ptr %10) #9
  %39 = load i1, ptr %5, align 1
  ret i1 %39
}