; Function Attrs: nounwind uwtable
define dso_local zeroext i1 @pg_verify_mbstr(i32 noundef %0, ptr noundef %1, i32 noundef %2, i1 noundef zeroext %3) local_unnamed_addr #0 {
  %5 = sext i32 %0 to i64
  %6 = getelementptr inbounds [0 x %struct.pg_wchar_tbl], ptr @pg_wchar_table, i64 0, i64 %5, i32 5
  %7 = load ptr, ptr %6, align 8
  %8 = tail call i32 %7(ptr noundef %1, i32 noundef %2) #13
  %.not = icmp eq i32 %8, %2
  %brmerge = or i1 %3, %.not
  br i1 %brmerge, label %13, label %9

9:                                                ; preds = %4
  %10 = sext i32 %8 to i64
  %11 = getelementptr inbounds i8, ptr %1, i64 %10
  %12 = sub i32 %2, %8
  tail call void @report_invalid_encoding(i32 noundef %0, ptr noundef %11, i32 noundef %12) #15
  unreachable

13:                                               ; preds = %4
  ret i1 %.not
}